; Function Attrs: mustprogress nounwind uwtable
define dso_local void @_ZN12RandomNumberD2Ev(ptr noundef nonnull align 8 dereferenceable(72) %0) unnamed_addr #4 align 2 personality ptr @__gxx_personality_v0 {
  store ptr getelementptr inbounds ({ [8 x ptr] }, ptr @_ZTV12RandomNumber, i64 0, i32 0, i64 2), ptr %0, align 8
  %2 = getelementptr inbounds i8, ptr %0, i64 16
  %3 = getelementptr inbounds i8, ptr %0, i64 32
  %4 = load ptr, ptr %3, align 8
  invoke void @_ZNSt8_Rb_treeI16RNDNUM_GENERATORSt4pairIKS0_P18AbsRndNumGeneratorESt10_Select1stIS5_ESt4lessIS0_ESaIS5_EE8_M_eraseEPSt13_Rb_tree_nodeIS5_E(ptr noundef nonnull align 8 dereferenceable(48) %2, ptr noundef %4)
          to label %_ZNSt3mapI16RNDNUM_GENERATORP18AbsRndNumGeneratorSt4lessIS0_ESaISt4pairIKS0_S2_EEE5clearEv.exit unwind label %5

5:                                                ; preds = %1
  %6 = landingpad { ptr, i32 }
          catch ptr null
  %7 = extractvalue { ptr, i32 } %6, 0
  tail call void @__clang_call_terminate(ptr %7) #16
  unreachable

_ZNSt3mapI16RNDNUM_GENERATORP18AbsRndNumGeneratorSt4lessIS0_ESaISt4pairIKS0_S2_EEE5clearEv.exit: ; preds = %1
  %8 = getelementptr inbounds i8, ptr %0, i64 24
  store ptr null, ptr %3, align 8
  %9 = getelementptr inbounds i8, ptr %0, i64 40
  store ptr %8, ptr %9, align 8
  %10 = getelementptr inbounds i8, ptr %0, i64 48
  store ptr %8, ptr %10, align 8
  %11 = getelementptr inbounds i8, ptr %0, i64 56
  store i64 0, ptr %11, align 8
  invoke void @_ZNSt8_Rb_treeI16RNDNUM_GENERATORSt4pairIKS0_P18AbsRndNumGeneratorESt10_Select1stIS5_ESt4lessIS0_ESaIS5_EE8_M_eraseEPSt13_Rb_tree_nodeIS5_E(ptr noundef nonnull align 8 dereferenceable(48) %2, ptr noundef null)
          to label %_ZNSt3mapI16RNDNUM_GENERATORP18AbsRndNumGeneratorSt4lessIS0_ESaISt4pairIKS0_S2_EEED2Ev.exit unwind label %12

12:                                               ; preds = %_ZNSt3mapI16RNDNUM_GENERATORP18AbsRndNumGeneratorSt4lessIS0_ESaISt4pairIKS0_S2_EEE5clearEv.exit
  %13 = landingpad { ptr, i32 }
          catch ptr null
  %14 = extractvalue { ptr, i32 } %13, 0
  tail call void @__clang_call_terminate(ptr %14) #16
  unreachable

_ZNSt3mapI16RNDNUM_GENERATORP18AbsRndNumGeneratorSt4lessIS0_ESaISt4pairIKS0_S2_EEED2Ev.exit: ; preds = %_ZNSt3mapI16RNDNUM_GENERATORP18AbsRndNumGeneratorSt4lessIS0_ESaISt4pairIKS0_S2_EEE5clearEv.exit
  ret void
}